; ModuleID = '27/1833.c'
source_filename = "27/1833.c"
target datalayout = "e-m:e-p270:32:32-p271:32:32-p272:64:64-i64:64-f80:128-n8:16:32:64-S128"
target triple = "x86_64-pc-linux-gnu"

@.str = private unnamed_addr constant [3 x i8] c"%d\00", align 1
@.str.1 = private unnamed_addr constant [12 x i8] c"%lf %lf %lf\00", align 1
@.str.2 = private unnamed_addr constant [17 x i8] c"x1=%.5f;x2=%.5f\0A\00", align 1
@.str.3 = private unnamed_addr constant [12 x i8] c"x1=x2=%.5f\0A\00", align 1
@.str.4 = private unnamed_addr constant [29 x i8] c"x1=%.5f+%.5fi;x2=%.5f-%.5fi\0A\00", align 1

; Function Attrs: noinline nounwind uwtable
define dso_local double @fuhao(double %0) #0 {
  %2 = alloca double, align 8
  %3 = alloca double, align 8
  store double %0, double* %2, align 8
  %4 = load double, double* %2, align 8
  %5 = fcmp olt double %4, 0.000000e+00
  br i1 %5, label %6, label %11

6:                                                ; preds = %1
  %7 = load double, double* %2, align 8
  %8 = fsub double 0.000000e+00, %7
  %9 = fcmp olt double %8, 1.000000e-05
  br i1 %9, label %10, label %11

10:                                               ; preds = %6
  store double 0.000000e+00, double* %3, align 8
  br label %13

11:                                               ; preds = %6, %1
  %12 = load double, double* %2, align 8
  store double %12, double* %3, align 8
  br label %13

13:                                               ; preds = %11, %10
  %14 = load double, double* %3, align 8
  ret double %14
}

; Function Attrs: noinline nounwind uwtable
define dso_local i32 @main() #0 {
  %1 = alloca i32, align 4
  %2 = alloca [100 x double], align 16
  %3 = alloca [100 x double], align 16
  %4 = alloca [100 x double], align 16
  %5 = alloca [100 x double], align 16
  %6 = alloca [100 x double], align 16
  %7 = alloca [100 x double], align 16
  %8 = alloca i32, align 4
  %9 = alloca i32, align 4
  %10 = alloca [100 x i32], align 16
  store i32 0, i32* %1, align 4
  %11 = call i32 (i8*, ...) @__isoc99_scanf(i8* getelementptr inbounds ([3 x i8], [3 x i8]* @.str, i64 0, i64 0), i32* %8)
  store i32 0, i32* %9, align 4
  br label %12

12:                                               ; preds = %50, %0
  %13 = load i32, i32* %9, align 4
  %14 = load i32, i32* %8, align 4
  %15 = icmp slt i32 %13, %14
  br i1 %15, label %16, label %53

16:                                               ; preds = %12
  %17 = load i32, i32* %9, align 4
  %18 = sext i32 %17 to i64
  %19 = getelementptr inbounds [100 x double], [100 x double]* %2, i64 0, i64 %18
  %20 = load i32, i32* %9, align 4
  %21 = sext i32 %20 to i64
  %22 = getelementptr inbounds [100 x double], [100 x double]* %3, i64 0, i64 %21
  %23 = load i32, i32* %9, align 4
  %24 = sext i32 %23 to i64
  %25 = getelementptr inbounds [100 x double], [100 x double]* %4, i64 0, i64 %24
  %26 = call i32 (i8*, ...) @__isoc99_scanf(i8* getelementptr inbounds ([12 x i8], [12 x i8]* @.str.1, i64 0, i64 0), double* %19, double* %22, double* %25)
  %27 = load i32, i32* %9, align 4
  %28 = sext i32 %27 to i64
  %29 = getelementptr inbounds [100 x double], [100 x double]* %3, i64 0, i64 %28
  %30 = load double, double* %29, align 8
  %31 = load i32, i32* %9, align 4
  %32 = sext i32 %31 to i64
  %33 = getelementptr inbounds [100 x double], [100 x double]* %3, i64 0, i64 %32
  %34 = load double, double* %33, align 8
  %35 = fmul double %30, %34
  %36 = load i32, i32* %9, align 4
  %37 = sext i32 %36 to i64
  %38 = getelementptr inbounds [100 x double], [100 x double]* %2, i64 0, i64 %37
  %39 = load double, double* %38, align 8
  %40 = fmul double 4.000000e+00, %39
  %41 = load i32, i32* %9, align 4
  %42 = sext i32 %41 to i64
  %43 = getelementptr inbounds [100 x double], [100 x double]* %4, i64 0, i64 %42
  %44 = load double, double* %43, align 8
  %45 = fmul double %40, %44
  %46 = fsub double %35, %45
  %47 = load i32, i32* %9, align 4
  %48 = sext i32 %47 to i64
  %49 = getelementptr inbounds [100 x double], [100 x double]* %7, i64 0, i64 %48
  store double %46, double* %49, align 8
  br label %50

50:                                               ; preds = %16
  %51 = load i32, i32* %9, align 4
  %52 = add nsw i32 %51, 1
  store i32 %52, i32* %9, align 4
  br label %12

53:                                               ; preds = %12
  store i32 0, i32* %9, align 4
  br label %54

54:                                               ; preds = %199, %53
  %55 = load i32, i32* %9, align 4
  %56 = load i32, i32* %8, align 4
  %57 = icmp slt i32 %55, %56
  br i1 %57, label %58, label %202

58:                                               ; preds = %54
  %59 = load i32, i32* %9, align 4
  %60 = sext i32 %59 to i64
  %61 = getelementptr inbounds [100 x double], [100 x double]* %7, i64 0, i64 %60
  %62 = load double, double* %61, align 8
  %63 = fcmp ogt double %62, 0.000000e+00
  br i1 %63, label %64, label %68

64:                                               ; preds = %58
  %65 = load i32, i32* %9, align 4
  %66 = sext i32 %65 to i64
  %67 = getelementptr inbounds [100 x i32], [100 x i32]* %10, i64 0, i64 %66
  store i32 1, i32* %67, align 4
  br label %83

68:                                               ; preds = %58
  %69 = load i32, i32* %9, align 4
  %70 = sext i32 %69 to i64
  %71 = getelementptr inbounds [100 x double], [100 x double]* %7, i64 0, i64 %70
  %72 = load double, double* %71, align 8
  %73 = fcmp olt double %72, 0.000000e+00
  br i1 %73, label %74, label %78

74:                                               ; preds = %68
  %75 = load i32, i32* %9, align 4
  %76 = sext i32 %75 to i64
  %77 = getelementptr inbounds [100 x i32], [100 x i32]* %10, i64 0, i64 %76
  store i32 -1, i32* %77, align 4
  br label %82

78:                                               ; preds = %68
  %79 = load i32, i32* %9, align 4
  %80 = sext i32 %79 to i64
  %81 = getelementptr inbounds [100 x i32], [100 x i32]* %10, i64 0, i64 %80
  store i32 0, i32* %81, align 4
  br label %82

82:                                               ; preds = %78, %74
  br label %83

83:                                               ; preds = %82, %64
  %84 = load i32, i32* %9, align 4
  %85 = sext i32 %84 to i64
  %86 = getelementptr inbounds [100 x i32], [100 x i32]* %10, i64 0, i64 %85
  %87 = load i32, i32* %86, align 4
  %88 = icmp eq i32 %87, 1
  br i1 %88, label %89, label %127

89:                                               ; preds = %83
  %90 = load i32, i32* %9, align 4
  %91 = sext i32 %90 to i64
  %92 = getelementptr inbounds [100 x double], [100 x double]* %3, i64 0, i64 %91
  %93 = load double, double* %92, align 8
  %94 = fsub double 0.000000e+00, %93
  %95 = load i32, i32* %9, align 4
  %96 = sext i32 %95 to i64
  %97 = getelementptr inbounds [100 x double], [100 x double]* %7, i64 0, i64 %96
  %98 = load double, double* %97, align 8
  %99 = call double @sqrt(double %98) #3
  %100 = fadd double %94, %99
  %101 = load i32, i32* %9, align 4
  %102 = sext i32 %101 to i64
  %103 = getelementptr inbounds [100 x double], [100 x double]* %2, i64 0, i64 %102
  %104 = load double, double* %103, align 8
  %105 = fmul double 2.000000e+00, %104
  %106 = fdiv double %100, %105
  %107 = call double @fuhao(double %106)
  %108 = load i32, i32* %9, align 4
  %109 = sext i32 %108 to i64
  %110 = getelementptr inbounds [100 x double], [100 x double]* %3, i64 0, i64 %109
  %111 = load double, double* %110, align 8
  %112 = fsub double 0.000000e+00, %111
  %113 = load i32, i32* %9, align 4
  %114 = sext i32 %113 to i64
  %115 = getelementptr inbounds [100 x double], [100 x double]* %7, i64 0, i64 %114
  %116 = load double, double* %115, align 8
  %117 = call double @sqrt(double %116) #3
  %118 = fsub double %112, %117
  %119 = load i32, i32* %9, align 4
  %120 = sext i32 %119 to i64
  %121 = getelementptr inbounds [100 x double], [100 x double]* %2, i64 0, i64 %120
  %122 = load double, double* %121, align 8
  %123 = fmul double 2.000000e+00, %122
  %124 = fdiv double %118, %123
  %125 = call double @fuhao(double %124)
  %126 = call i32 (i8*, ...) @printf(i8* getelementptr inbounds ([17 x i8], [17 x i8]* @.str.2, i64 0, i64 0), double %107, double %125)
  br label %198

127:                                              ; preds = %83
  %128 = load i32, i32* %9, align 4
  %129 = sext i32 %128 to i64
  %130 = getelementptr inbounds [100 x i32], [100 x i32]* %10, i64 0, i64 %129
  %131 = load i32, i32* %130, align 4
  %132 = icmp eq i32 %131, 0
  br i1 %132, label %133, label %147

133:                                              ; preds = %127
  %134 = load i32, i32* %9, align 4
  %135 = sext i32 %134 to i64
  %136 = getelementptr inbounds [100 x double], [100 x double]* %3, i64 0, i64 %135
  %137 = load double, double* %136, align 8
  %138 = fsub double 0.000000e+00, %137
  %139 = load i32, i32* %9, align 4
  %140 = sext i32 %139 to i64
  %141 = getelementptr inbounds [100 x double], [100 x double]* %2, i64 0, i64 %140
  %142 = load double, double* %141, align 8
  %143 = fmul double 2.000000e+00, %142
  %144 = fdiv double %138, %143
  %145 = call double @fuhao(double %144)
  %146 = call i32 (i8*, ...) @printf(i8* getelementptr inbounds ([12 x i8], [12 x i8]* @.str.3, i64 0, i64 0), double %145)
  br label %197

147:                                              ; preds = %127
  %148 = load i32, i32* %9, align 4
  %149 = sext i32 %148 to i64
  %150 = getelementptr inbounds [100 x double], [100 x double]* %3, i64 0, i64 %149
  %151 = load double, double* %150, align 8
  %152 = fsub double 0.000000e+00, %151
  %153 = load i32, i32* %9, align 4
  %154 = sext i32 %153 to i64
  %155 = getelementptr inbounds [100 x double], [100 x double]* %2, i64 0, i64 %154
  %156 = load double, double* %155, align 8
  %157 = fmul double 2.000000e+00, %156
  %158 = fdiv double %152, %157
  %159 = call double @fuhao(double %158)
  %160 = load i32, i32* %9, align 4
  %161 = sext i32 %160 to i64
  %162 = getelementptr inbounds [100 x double], [100 x double]* %7, i64 0, i64 %161
  %163 = load double, double* %162, align 8
  %164 = fneg double %163
  %165 = call double @sqrt(double %164) #3
  %166 = load i32, i32* %9, align 4
  %167 = sext i32 %166 to i64
  %168 = getelementptr inbounds [100 x double], [100 x double]* %2, i64 0, i64 %167
  %169 = load double, double* %168, align 8
  %170 = fmul double 2.000000e+00, %169
  %171 = fdiv double %165, %170
  %172 = load i32, i32* %9, align 4
  %173 = sext i32 %172 to i64
  %174 = getelementptr inbounds [100 x double], [100 x double]* %3, i64 0, i64 %173
  %175 = load double, double* %174, align 8
  %176 = fsub double 0.000000e+00, %175
  %177 = load i32, i32* %9, align 4
  %178 = sext i32 %177 to i64
  %179 = getelementptr inbounds [100 x double], [100 x double]* %2, i64 0, i64 %178
  %180 = load double, double* %179, align 8
  %181 = fmul double 2.000000e+00, %180
  %182 = fdiv double %176, %181
  %183 = call double @fuhao(double %182)
  %184 = load i32, i32* %9, align 4
  %185 = sext i32 %184 to i64
  %186 = getelementptr inbounds [100 x double], [100 x double]* %7, i64 0, i64 %185
  %187 = load double, double* %186, align 8
  %188 = fneg double %187
  %189 = call double @sqrt(double %188) #3
  %190 = load i32, i32* %9, align 4
  %191 = sext i32 %190 to i64
  %192 = getelementptr inbounds [100 x double], [100 x double]* %2, i64 0, i64 %191
  %193 = load double, double* %192, align 8
  %194 = fmul double 2.000000e+00, %193
  %195 = fdiv double %189, %194
  %196 = call i32 (i8*, ...) @printf(i8* getelementptr inbounds ([29 x i8], [29 x i8]* @.str.4, i64 0, i64 0), double %159, double %171, double %183, double %195)
  br label %197

197:                                              ; preds = %147, %133
  br label %198

198:                                              ; preds = %197, %89
  br label %199

199:                                              ; preds = %198
  %200 = load i32, i32* %9, align 4
  %201 = add nsw i32 %200, 1
  store i32 %201, i32* %9, align 4
  br label %54

202:                                              ; preds = %54
  ret i32 0
}

declare dso_local i32 @__isoc99_scanf(i8*, ...) #1

declare dso_local i32 @printf(i8*, ...) #1

; Function Attrs: nounwind
declare dso_local double @sqrt(double) #2


!llvm.module.flags = !{!0}
!llvm.ident = !{!1}

!0 = !{i32 1, !"wchar_size", i32 4}
!1 = !{!"clang version 10.0.0-4ubuntu1 "}
